target datalayout = "e-m:e-p270:32:32-p271:32:32-p272:64:64-i64:64-i128:128-f80:128-n8:16:32:64-S128"
target triple = "x86_64-pc-linux-gnu"

%struct.nghttp2_hd_context = type { %struct.nghttp2_hd_ringbuf, ptr, i64, i64, i32, i8 }
%struct.nghttp2_hd_ringbuf = type { ptr, i64, i64, i64 }
%struct.nghttp2_hd_inflater = type { %struct.nghttp2_hd_context, %struct.nghttp2_hd_huff_decode_context, %struct.nghttp2_buf, %struct.nghttp2_buf, ptr, ptr, ptr, ptr, i64, i64, i64, i64, i64, i32, i32, i8, i8, i8 }
%struct.nghttp2_hd_huff_decode_context = type { i16 }
%struct.nghttp2_buf = type { ptr, ptr, ptr, ptr, ptr }

; Function Attrs: nounwind uwtable
define internal void @hd_inflate_keep_free(ptr noundef %0) #0 {
  %2 = alloca ptr, align 8
  store ptr %0, ptr %2, align 8, !tbaa !53
  %3 = load ptr, ptr %2, align 8, !tbaa !53
  %4 = getelementptr inbounds nuw %struct.nghttp2_hd_inflater, ptr %3, i32 0, i32 7
  %5 = load ptr, ptr %4, align 8, !tbaa !62
  call void @nghttp2_rcbuf_decref(ptr noundef %5)
  %6 = load ptr, ptr %2, align 8, !tbaa !53
  %7 = getelementptr inbounds nuw %struct.nghttp2_hd_inflater, ptr %6, i32 0, i32 6
  %8 = load ptr, ptr %7, align 8, !tbaa !61
  call void @nghttp2_rcbuf_decref(ptr noundef %8)
  %9 = load ptr, ptr %2, align 8, !tbaa !53
  %10 = getelementptr inbounds nuw %struct.nghttp2_hd_inflater, ptr %9, i32 0, i32 7
  store ptr null, ptr %10, align 8, !tbaa !62
  %11 = load ptr, ptr %2, align 8, !tbaa !53
  %12 = getelementptr inbounds nuw %struct.nghttp2_hd_inflater, ptr %11, i32 0, i32 6
  store ptr null, ptr %12, align 8, !tbaa !61
  ret void
}

; Function Attrs: nounwind uwtable
define dso_local i32 @nghttp2_hd_inflate_end_headers(ptr noundef %0) #0 {
  %2 = alloca ptr, align 8
  store ptr %0, ptr %2, align 8, !tbaa !53
  %3 = load ptr, ptr %2, align 8, !tbaa !53
  call void @hd_inflate_keep_free(ptr noundef %3)
  %4 = load ptr, ptr %2, align 8, !tbaa !53
  %5 = getelementptr inbounds nuw %struct.nghttp2_hd_inflater, ptr %4, i32 0, i32 14
  store i32 1, ptr %5, align 4, !tbaa !64
  ret i32 0
}