; Function Attrs: nounwind uwtable
define dso_local noundef i32 @nghttp2_hd_inflate_end_headers(ptr noundef captures(none) initializes((228, 232)) %0) local_unnamed_addr #0 {
  %2 = getelementptr inbounds nuw i8, ptr %0, i64 176
  %3 = load ptr, ptr %2, align 8, !tbaa !67
  tail call void @nghttp2_rcbuf_decref(ptr noundef %3) #13
  %4 = getelementptr inbounds nuw i8, ptr %0, i64 168
  %5 = load ptr, ptr %4, align 8, !tbaa !68
  tail call void @nghttp2_rcbuf_decref(ptr noundef %5) #13
  tail call void @llvm.memset.p0.i64(ptr noundef nonnull align 8 dereferenceable(16) %4, i8 0, i64 16, i1 false)
  %6 = getelementptr inbounds nuw i8, ptr %0, i64 228
  store i32 1, ptr %6, align 4, !tbaa !57
  ret i32 0
}